; Function Attrs: mustprogress nofree norecurse nosync nounwind willreturn memory(readwrite, argmem: none, inaccessiblemem: none) uwtable
define void @SplashSetScaleFactor(float noundef %0) local_unnamed_addr #0 {
  %.b.i = load i1, ptr @SplashGetInstance.preInitialized, align 4
  br i1 %.b.i, label %SplashGetInstance.exit, label %2

2:                                                ; preds = %1
  tail call void @llvm.memset.p0.i64(ptr noundef nonnull align 8 dereferenceable(11808) @SplashGetInstance.splash, i8 0, i64 11808, i1 false)
  store i32 -1, ptr getelementptr inbounds (i8, ptr @SplashGetInstance.splash, i64 10628), align 4
  store i1 true, ptr @SplashGetInstance.preInitialized, align 4
  br label %SplashGetInstance.exit

SplashGetInstance.exit:                           ; preds = %1, %2
  store float %0, ptr getelementptr inbounds (i8, ptr @SplashGetInstance.splash, i64 11700), align 4
  ret void
}